; Function Attrs: mustprogress uwtable
define void @_ZN7rocksdb12TracerHelper15ParseVersionStrERNSt7__cxx1112basic_stringIcSt11char_traitsIcESaIcEEEPi(ptr dead_on_unwind noalias writable sret(%"class.rocksdb::Status") align 8 %0, ptr noundef nonnull align 8 dereferenceable(32) %1, ptr noundef writeonly captures(none) %2) local_unnamed_addr #4 align 2 personality ptr @__gxx_personality_v0 {
  %4 = alloca %"class.rocksdb::Slice", align 8
  %5 = alloca %"class.rocksdb::Slice", align 8
  %6 = alloca %"class.rocksdb::Slice", align 8
  %7 = alloca %"class.rocksdb::Slice", align 8
  %8 = tail call noundef i64 @_ZNKSt7__cxx1112basic_stringIcSt11char_traitsIcESaIcEE4findEcm(ptr noundef nonnull align 8 dereferenceable(32) %1, i8 noundef signext 46, i64 noundef 0) #24
  %9 = icmp eq i64 %8, -1
  br i1 %9, label %17, label %10

10:                                               ; preds = %3
  %11 = tail call noundef i64 @_ZNKSt7__cxx1112basic_stringIcSt11char_traitsIcESaIcEE4findEcm(ptr noundef nonnull align 8 dereferenceable(32) %1, i8 noundef signext 46, i64 noundef 0) #24
  %12 = tail call noundef i64 @_ZNKSt7__cxx1112basic_stringIcSt11char_traitsIcESaIcEE5rfindEcm(ptr noundef nonnull align 8 dereferenceable(32) %1, i8 noundef signext 46, i64 noundef -1) #24
  %.not = icmp eq i64 %11, %12
  br i1 %.not, label %.preheader, label %17

.preheader:                                       ; preds = %10
  %13 = getelementptr inbounds nuw i8, ptr %1, i64 8
  %14 = load i64, ptr %13, align 8, !tbaa !16
  %15 = trunc i64 %14 to i32
  %.not1719 = icmp sgt i32 %15, 0
  br i1 %.not1719, label %.lr.ph, label %.critedge

.lr.ph:                                           ; preds = %.preheader
  %16 = load ptr, ptr %1, align 8, !tbaa !11
  %wide.trip.count = and i64 %14, 2147483647
  br label %20

17:                                               ; preds = %10, %3
  call void @llvm.lifetime.start.p0(i64 16, ptr nonnull %4) #24
  store ptr @.str.42, ptr %4, align 8, !tbaa !18
  %18 = getelementptr inbounds nuw i8, ptr %4, i64 8
  store i64 47, ptr %18, align 8, !tbaa !20
  call void @llvm.lifetime.start.p0(i64 16, ptr nonnull %5) #24
  store ptr @.str, ptr %5, align 8, !tbaa !18
  %19 = getelementptr inbounds nuw i8, ptr %5, i64 8
  store i64 0, ptr %19, align 8, !tbaa !20
  call void @_ZN7rocksdb6StatusC2ENS0_4CodeENS0_7SubCodeERKNS_5SliceES5_NS0_8SeverityE(ptr noundef nonnull align 8 dereferenceable(16) %0, i8 noundef zeroext 2, i8 noundef zeroext 0, ptr noundef nonnull align 8 dereferenceable(16) %4, ptr noundef nonnull align 8 dereferenceable(16) %5, i8 noundef zeroext 0)
  call void @llvm.lifetime.end.p0(i64 16, ptr nonnull %5) #24
  call void @llvm.lifetime.end.p0(i64 16, ptr nonnull %4) #24
  br label %34

20:                                               ; preds = %.lr.ph, %32
  %indvars.iv = phi i64 [ 0, %.lr.ph ], [ %indvars.iv.next, %32 ]
  %.01620 = phi i32 [ 0, %.lr.ph ], [ %.1, %32 ]
  %21 = getelementptr inbounds nuw i8, ptr %16, i64 %indvars.iv
  %22 = load i8, ptr %21, align 1, !tbaa !17
  %23 = icmp eq i8 %22, 46
  br i1 %23, label %32, label %24

24:                                               ; preds = %20
  %25 = sext i8 %22 to i32
  %isdigittmp = add nsw i32 %25, -48
  %isdigit = icmp ult i32 %isdigittmp, 10
  br i1 %isdigit, label %26, label %29

26:                                               ; preds = %24
  %27 = mul nsw i32 %.01620, 10
  %28 = add nsw i32 %isdigittmp, %27
  br label %32

29:                                               ; preds = %24
  call void @llvm.lifetime.start.p0(i64 16, ptr nonnull %6) #24
  store ptr @.str.43, ptr %6, align 8, !tbaa !18
  %30 = getelementptr inbounds nuw i8, ptr %6, i64 8
  store i64 46, ptr %30, align 8, !tbaa !20
  call void @llvm.lifetime.start.p0(i64 16, ptr nonnull %7) #24
  store ptr @.str, ptr %7, align 8, !tbaa !18
  %31 = getelementptr inbounds nuw i8, ptr %7, i64 8
  store i64 0, ptr %31, align 8, !tbaa !20
  call void @_ZN7rocksdb6StatusC2ENS0_4CodeENS0_7SubCodeERKNS_5SliceES5_NS0_8SeverityE(ptr noundef nonnull align 8 dereferenceable(16) %0, i8 noundef zeroext 2, i8 noundef zeroext 0, ptr noundef nonnull align 8 dereferenceable(16) %6, ptr noundef nonnull align 8 dereferenceable(16) %7, i8 noundef zeroext 0)
  call void @llvm.lifetime.end.p0(i64 16, ptr nonnull %7) #24
  call void @llvm.lifetime.end.p0(i64 16, ptr nonnull %6) #24
  br label %34

32:                                               ; preds = %20, %26
  %.1 = phi i32 [ %.01620, %20 ], [ %28, %26 ]
  %indvars.iv.next = add nuw nsw i64 %indvars.iv, 1
  %exitcond.not = icmp eq i64 %indvars.iv.next, %wide.trip.count
  br i1 %exitcond.not, label %.critedge, label %20, !llvm.loop !21

.critedge:                                        ; preds = %32, %.preheader
  %.016.lcssa = phi i32 [ 0, %.preheader ], [ %.1, %32 ]
  store i32 %.016.lcssa, ptr %2, align 4, !tbaa !23
  %33 = getelementptr inbounds nuw i8, ptr %0, i64 8
  store ptr null, ptr %33, align 8, !tbaa !25, !alias.scope !27
  tail call void @llvm.memset.p0.i64(ptr noundef nonnull align 8 dereferenceable(16) %0, i8 0, i64 6, i1 false), !alias.scope !27
  br label %34

34:                                               ; preds = %29, %.critedge, %17
  ret void
}